; Function Attrs: nounwind uwtable
define nonnull ptr @l_Lake_LeanLib_precompileModules___boxed(ptr noundef %0) local_unnamed_addr #0 {
  %2 = getelementptr inbounds nuw i8, ptr %0, i64 8
  %3 = load ptr, ptr %2, align 8, !tbaa !4
  %4 = getelementptr inbounds nuw i8, ptr %3, i64 32
  %5 = load ptr, ptr %4, align 8, !tbaa !4
  %6 = getelementptr inbounds nuw i8, ptr %5, i64 209
  %7 = load i8, ptr %6, align 1, !tbaa !14
  %8 = icmp eq i8 %7, 0
  br i1 %8, label %9, label %l_Lake_LeanLib_precompileModules.exit

9:                                                ; preds = %1
  %10 = getelementptr inbounds nuw i8, ptr %0, i64 24
  %11 = load ptr, ptr %10, align 8, !tbaa !4
  %12 = getelementptr inbounds nuw i8, ptr %11, i64 80
  %13 = load i8, ptr %12, align 1, !tbaa !14
  %14 = zext i8 %13 to i64
  %15 = shl nuw nsw i64 %14, 1
  %16 = or disjoint i64 %15, 1
  br label %l_Lake_LeanLib_precompileModules.exit

l_Lake_LeanLib_precompileModules.exit:            ; preds = %1, %9
  %.0.i = phi i64 [ %16, %9 ], [ 3, %1 ]
  %17 = ptrtoint ptr %0 to i64
  %18 = and i64 %17, 1
  %.not = icmp eq i64 %18, 0
  br i1 %.not, label %19, label %lean_dec.exit

19:                                               ; preds = %l_Lake_LeanLib_precompileModules.exit
  %20 = load i32, ptr %0, align 4, !tbaa !8
  %21 = icmp sgt i32 %20, 1
  br i1 %21, label %22, label %24, !prof !11

22:                                               ; preds = %19
  %23 = add nsw i32 %20, -1
  store i32 %23, ptr %0, align 4, !tbaa !8
  br label %lean_dec.exit

24:                                               ; preds = %19
  %.not.i = icmp eq i32 %20, 0
  br i1 %.not.i, label %lean_dec.exit, label %25

25:                                               ; preds = %24
  tail call void @lean_dec_ref_cold(ptr noundef nonnull %0) #4
  br label %lean_dec.exit

lean_dec.exit:                                    ; preds = %25, %24, %22, %l_Lake_LeanLib_precompileModules.exit
  %26 = inttoptr i64 %.0.i to ptr
  ret ptr %26
}